; ModuleID = '8/595.c'
source_filename = "8/595.c"
target datalayout = "e-m:e-p270:32:32-p271:32:32-p272:64:64-i64:64-f80:128-n8:16:32:64-S128"
target triple = "x86_64-pc-linux-gnu"

@.str = private unnamed_addr constant [6 x i8] c"%d %d\00", align 1
@.str.1 = private unnamed_addr constant [3 x i8] c"%d\00", align 1
@.str.2 = private unnamed_addr constant [4 x i8] c"%d \00", align 1

; Function Attrs: noinline nounwind uwtable
define dso_local i32 @main() #0 {
  %1 = alloca i32, align 4
  %2 = alloca i32, align 4
  %3 = alloca i32, align 4
  %4 = alloca i32, align 4
  %5 = alloca [50 x i32], align 16
  %6 = alloca [50 x i32], align 16
  %7 = alloca [100 x i32], align 16
  store i32 0, i32* %1, align 4
  %8 = call i32 (i8*, ...) @__isoc99_scanf(i8* getelementptr inbounds ([6 x i8], [6 x i8]* @.str, i64 0, i64 0), i32* %3, i32* %4)
  store i32 0, i32* %2, align 4
  br label %9

9:                                                ; preds = %19, %0
  %10 = load i32, i32* %2, align 4
  %11 = load i32, i32* %3, align 4
  %12 = sub nsw i32 %11, 1
  %13 = icmp sle i32 %10, %12
  br i1 %13, label %14, label %22

14:                                               ; preds = %9
  %15 = load i32, i32* %2, align 4
  %16 = sext i32 %15 to i64
  %17 = getelementptr inbounds [50 x i32], [50 x i32]* %5, i64 0, i64 %16
  %18 = call i32 (i8*, ...) @__isoc99_scanf(i8* getelementptr inbounds ([3 x i8], [3 x i8]* @.str.1, i64 0, i64 0), i32* %17)
  br label %19

19:                                               ; preds = %14
  %20 = load i32, i32* %2, align 4
  %21 = add nsw i32 %20, 1
  store i32 %21, i32* %2, align 4
  br label %9

22:                                               ; preds = %9
  store i32 0, i32* %2, align 4
  br label %23

23:                                               ; preds = %33, %22
  %24 = load i32, i32* %2, align 4
  %25 = load i32, i32* %4, align 4
  %26 = sub nsw i32 %25, 1
  %27 = icmp sle i32 %24, %26
  br i1 %27, label %28, label %36

28:                                               ; preds = %23
  %29 = load i32, i32* %2, align 4
  %30 = sext i32 %29 to i64
  %31 = getelementptr inbounds [50 x i32], [50 x i32]* %6, i64 0, i64 %30
  %32 = call i32 (i8*, ...) @__isoc99_scanf(i8* getelementptr inbounds ([3 x i8], [3 x i8]* @.str.1, i64 0, i64 0), i32* %31)
  br label %33

33:                                               ; preds = %28
  %34 = load i32, i32* %2, align 4
  %35 = add nsw i32 %34, 1
  store i32 %35, i32* %2, align 4
  br label %23

36:                                               ; preds = %23
  %37 = getelementptr inbounds [50 x i32], [50 x i32]* %5, i64 0, i64 0
  %38 = load i32, i32* %3, align 4
  call void @paixu(i32* %37, i32 %38)
  %39 = getelementptr inbounds [50 x i32], [50 x i32]* %6, i64 0, i64 0
  %40 = load i32, i32* %4, align 4
  call void @paixu(i32* %39, i32 %40)
  store i32 0, i32* %2, align 4
  br label %41

41:                                               ; preds = %54, %36
  %42 = load i32, i32* %2, align 4
  %43 = load i32, i32* %3, align 4
  %44 = sub nsw i32 %43, 1
  %45 = icmp sle i32 %42, %44
  br i1 %45, label %46, label %57

46:                                               ; preds = %41
  %47 = load i32, i32* %2, align 4
  %48 = sext i32 %47 to i64
  %49 = getelementptr inbounds [50 x i32], [50 x i32]* %5, i64 0, i64 %48
  %50 = load i32, i32* %49, align 4
  %51 = load i32, i32* %2, align 4
  %52 = sext i32 %51 to i64
  %53 = getelementptr inbounds [100 x i32], [100 x i32]* %7, i64 0, i64 %52
  store i32 %50, i32* %53, align 4
  br label %54

54:                                               ; preds = %46
  %55 = load i32, i32* %2, align 4
  %56 = add nsw i32 %55, 1
  store i32 %56, i32* %2, align 4
  br label %41

57:                                               ; preds = %41
  %58 = load i32, i32* %3, align 4
  store i32 %58, i32* %2, align 4
  br label %59

59:                                               ; preds = %76, %57
  %60 = load i32, i32* %2, align 4
  %61 = load i32, i32* %3, align 4
  %62 = load i32, i32* %4, align 4
  %63 = add nsw i32 %61, %62
  %64 = sub nsw i32 %63, 1
  %65 = icmp sle i32 %60, %64
  br i1 %65, label %66, label %79

66:                                               ; preds = %59
  %67 = load i32, i32* %2, align 4
  %68 = load i32, i32* %3, align 4
  %69 = sub nsw i32 %67, %68
  %70 = sext i32 %69 to i64
  %71 = getelementptr inbounds [50 x i32], [50 x i32]* %6, i64 0, i64 %70
  %72 = load i32, i32* %71, align 4
  %73 = load i32, i32* %2, align 4
  %74 = sext i32 %73 to i64
  %75 = getelementptr inbounds [100 x i32], [100 x i32]* %7, i64 0, i64 %74
  store i32 %72, i32* %75, align 4
  br label %76

76:                                               ; preds = %66
  %77 = load i32, i32* %2, align 4
  %78 = add nsw i32 %77, 1
  store i32 %78, i32* %2, align 4
  br label %59

79:                                               ; preds = %59
  store i32 0, i32* %2, align 4
  br label %80

80:                                               ; preds = %93, %79
  %81 = load i32, i32* %2, align 4
  %82 = load i32, i32* %3, align 4
  %83 = load i32, i32* %4, align 4
  %84 = add nsw i32 %82, %83
  %85 = sub nsw i32 %84, 2
  %86 = icmp sle i32 %81, %85
  br i1 %86, label %87, label %96

87:                                               ; preds = %80
  %88 = load i32, i32* %2, align 4
  %89 = sext i32 %88 to i64
  %90 = getelementptr inbounds [100 x i32], [100 x i32]* %7, i64 0, i64 %89
  %91 = load i32, i32* %90, align 4
  %92 = call i32 (i8*, ...) @printf(i8* getelementptr inbounds ([4 x i8], [4 x i8]* @.str.2, i64 0, i64 0), i32 %91)
  br label %93

93:                                               ; preds = %87
  %94 = load i32, i32* %2, align 4
  %95 = add nsw i32 %94, 1
  store i32 %95, i32* %2, align 4
  br label %80

96:                                               ; preds = %80
  %97 = load i32, i32* %3, align 4
  %98 = load i32, i32* %4, align 4
  %99 = add nsw i32 %97, %98
  %100 = sub nsw i32 %99, 1
  %101 = sext i32 %100 to i64
  %102 = getelementptr inbounds [100 x i32], [100 x i32]* %7, i64 0, i64 %101
  %103 = load i32, i32* %102, align 4
  %104 = call i32 (i8*, ...) @printf(i8* getelementptr inbounds ([3 x i8], [3 x i8]* @.str.1, i64 0, i64 0), i32 %103)
  ret i32 0
}

declare dso_local i32 @__isoc99_scanf(i8*, ...) #1

; Function Attrs: noinline nounwind uwtable
define dso_local void @paixu(i32* %0, i32 %1) #0 {
  %3 = alloca i32*, align 8
  %4 = alloca i32, align 4
  %5 = alloca i32, align 4
  %6 = alloca i32, align 4
  %7 = alloca i32, align 4
  store i32* %0, i32** %3, align 8
  store i32 %1, i32* %4, align 4
  store i32 1, i32* %6, align 4
  br label %8

8:                                                ; preds = %61, %2
  %9 = load i32, i32* %6, align 4
  %10 = load i32, i32* %4, align 4
  %11 = sub nsw i32 %10, 1
  %12 = icmp sle i32 %9, %11
  br i1 %12, label %13, label %64

13:                                               ; preds = %8
  store i32 0, i32* %5, align 4
  br label %14

14:                                               ; preds = %57, %13
  %15 = load i32, i32* %5, align 4
  %16 = load i32, i32* %4, align 4
  %17 = load i32, i32* %6, align 4
  %18 = sub nsw i32 %16, %17
  %19 = sub nsw i32 %18, 1
  %20 = icmp sle i32 %15, %19
  br i1 %20, label %21, label %60

21:                                               ; preds = %14
  %22 = load i32*, i32** %3, align 8
  %23 = load i32, i32* %5, align 4
  %24 = sext i32 %23 to i64
  %25 = getelementptr inbounds i32, i32* %22, i64 %24
  %26 = load i32, i32* %25, align 4
  %27 = load i32*, i32** %3, align 8
  %28 = load i32, i32* %5, align 4
  %29 = add nsw i32 %28, 1
  %30 = sext i32 %29 to i64
  %31 = getelementptr inbounds i32, i32* %27, i64 %30
  %32 = load i32, i32* %31, align 4
  %33 = icmp sgt i32 %26, %32
  br i1 %33, label %34, label %56

34:                                               ; preds = %21
  %35 = load i32*, i32** %3, align 8
  %36 = load i32, i32* %5, align 4
  %37 = sext i32 %36 to i64
  %38 = getelementptr inbounds i32, i32* %35, i64 %37
  %39 = load i32, i32* %38, align 4
  store i32 %39, i32* %7, align 4
  %40 = load i32*, i32** %3, align 8
  %41 = load i32, i32* %5, align 4
  %42 = add nsw i32 %41, 1
  %43 = sext i32 %42 to i64
  %44 = getelementptr inbounds i32, i32* %40, i64 %43
  %45 = load i32, i32* %44, align 4
  %46 = load i32*, i32** %3, align 8
  %47 = load i32, i32* %5, align 4
  %48 = sext i32 %47 to i64
  %49 = getelementptr inbounds i32, i32* %46, i64 %48
  store i32 %45, i32* %49, align 4
  %50 = load i32, i32* %7, align 4
  %51 = load i32*, i32** %3, align 8
  %52 = load i32, i32* %5, align 4
  %53 = add nsw i32 %52, 1
  %54 = sext i32 %53 to i64
  %55 = getelementptr inbounds i32, i32* %51, i64 %54
  store i32 %50, i32* %55, align 4
  br label %56

56:                                               ; preds = %34, %21
  br label %57

57:                                               ; preds = %56
  %58 = load i32, i32* %5, align 4
  %59 = add nsw i32 %58, 1
  store i32 %59, i32* %5, align 4
  br label %14

60:                                               ; preds = %14
  br label %61

61:                                               ; preds = %60
  %62 = load i32, i32* %6, align 4
  %63 = add nsw i32 %62, 1
  store i32 %63, i32* %6, align 4
  br label %8

64:                                               ; preds = %8
  ret void
}

declare dso_local i32 @printf(i8*, ...) #1


!llvm.module.flags = !{!0}
!llvm.ident = !{!1}

!0 = !{i32 1, !"wchar_size", i32 4}
!1 = !{!"clang version 10.0.0-4ubuntu1 "}
